; Function Attrs: mustprogress nofree norecurse nosync nounwind willreturn memory(read, inaccessiblemem: none) uwtable
define hidden noundef zeroext i1 @_ZN2dd11pdd_manager9is_binaryEj(ptr noundef nonnull readonly align 8 captures(none) dereferenceable(952) %0, i32 noundef %1) local_unnamed_addr #15 align 2 {
  %3 = load ptr, ptr %0, align 8, !tbaa !91
  %4 = zext i32 %1 to i64
  %5 = getelementptr inbounds nuw %"struct.dd::pdd_manager::node", ptr %3, i64 %4
  %6 = getelementptr inbounds nuw i8, ptr %5, i64 8
  %7 = load i32, ptr %6, align 4, !tbaa !92
  %8 = icmp eq i32 %7, 0
  br i1 %8, label %9, label %_ZNK2dd11pdd_manager6is_valEj.exit.thread13

9:                                                ; preds = %2
  %10 = getelementptr inbounds nuw i8, ptr %5, i64 4
  %11 = load i32, ptr %10, align 4, !tbaa !94
  %.not.i.i = icmp eq i32 %11, 0
  br i1 %.not.i.i, label %_ZNK2dd11pdd_manager6is_valEj.exit, label %_ZNK2dd11pdd_manager6is_valEj.exit12

_ZNK2dd11pdd_manager6is_valEj.exit:               ; preds = %9
  %12 = getelementptr inbounds nuw i8, ptr %5, i64 12
  %13 = load i32, ptr %12, align 4, !tbaa !98
  %14 = icmp eq i32 %13, 0
  br i1 %14, label %_ZNK2dd11pdd_manager6is_valEj.exit12, label %_ZNK2dd11pdd_manager6is_valEj.exit.thread13

_ZNK2dd11pdd_manager6is_valEj.exit.thread13:      ; preds = %2, %_ZNK2dd11pdd_manager6is_valEj.exit
  %15 = zext i32 %7 to i64
  %16 = getelementptr inbounds nuw %"struct.dd::pdd_manager::node", ptr %3, i64 %15
  %17 = getelementptr inbounds nuw i8, ptr %16, i64 8
  %18 = load i32, ptr %17, align 4, !tbaa !92
  %19 = icmp eq i32 %18, 0
  br i1 %19, label %20, label %_ZNK2dd11pdd_manager6is_valEj.exit12

20:                                               ; preds = %_ZNK2dd11pdd_manager6is_valEj.exit.thread13
  %21 = getelementptr inbounds nuw i8, ptr %16, i64 4
  %22 = load i32, ptr %21, align 4, !tbaa !94
  %.not.i.i5 = icmp eq i32 %22, 0
  br i1 %.not.i.i5, label %_ZNK2dd11pdd_manager6is_valEj.exit6, label %_ZNK2dd11pdd_manager6is_valEj.exit6.thread

_ZNK2dd11pdd_manager6is_valEj.exit6:              ; preds = %20
  %23 = getelementptr inbounds nuw i8, ptr %16, i64 12
  %24 = load i32, ptr %23, align 4, !tbaa !98
  %25 = icmp eq i32 %24, 0
  br i1 %25, label %_ZNK2dd11pdd_manager6is_valEj.exit6.thread, label %_ZNK2dd11pdd_manager6is_valEj.exit12

_ZNK2dd11pdd_manager6is_valEj.exit6.thread:       ; preds = %20, %_ZNK2dd11pdd_manager6is_valEj.exit6
  %26 = getelementptr inbounds nuw %"struct.dd::pdd_manager::node", ptr %3, i64 %4, i32 1
  %27 = load i32, ptr %26, align 4, !tbaa !94
  %28 = zext i32 %27 to i64
  %29 = getelementptr inbounds nuw %"struct.dd::pdd_manager::node", ptr %3, i64 %28
  %30 = getelementptr inbounds nuw i8, ptr %29, i64 8
  %31 = load i32, ptr %30, align 4, !tbaa !92
  %32 = icmp eq i32 %31, 0
  br i1 %32, label %33, label %_ZNK2dd11pdd_manager6is_valEj.exit8.thread15

33:                                               ; preds = %_ZNK2dd11pdd_manager6is_valEj.exit6.thread
  %34 = getelementptr inbounds nuw i8, ptr %29, i64 4
  %35 = load i32, ptr %34, align 4, !tbaa !94
  %.not.i.i7 = icmp eq i32 %35, 0
  br i1 %.not.i.i7, label %_ZNK2dd11pdd_manager6is_valEj.exit8, label %_ZNK2dd11pdd_manager6is_valEj.exit12

_ZNK2dd11pdd_manager6is_valEj.exit8:              ; preds = %33
  %36 = getelementptr inbounds nuw i8, ptr %29, i64 12
  %37 = load i32, ptr %36, align 4, !tbaa !98
  %38 = icmp eq i32 %37, 0
  br i1 %38, label %_ZNK2dd11pdd_manager6is_valEj.exit12, label %_ZNK2dd11pdd_manager6is_valEj.exit8.thread15

_ZNK2dd11pdd_manager6is_valEj.exit8.thread15:     ; preds = %_ZNK2dd11pdd_manager6is_valEj.exit6.thread, %_ZNK2dd11pdd_manager6is_valEj.exit8
  %39 = zext i32 %31 to i64
  %40 = getelementptr inbounds nuw %"struct.dd::pdd_manager::node", ptr %3, i64 %39
  %41 = getelementptr inbounds nuw i8, ptr %40, i64 8
  %42 = load i32, ptr %41, align 4, !tbaa !92
  %43 = icmp eq i32 %42, 0
  br i1 %43, label %44, label %_ZNK2dd11pdd_manager6is_valEj.exit12

44:                                               ; preds = %_ZNK2dd11pdd_manager6is_valEj.exit8.thread15
  %45 = getelementptr inbounds nuw i8, ptr %40, i64 4
  %46 = load i32, ptr %45, align 4, !tbaa !94
  %.not.i.i9 = icmp eq i32 %46, 0
  br i1 %.not.i.i9, label %_ZNK2dd11pdd_manager6is_valEj.exit10, label %_ZNK2dd11pdd_manager6is_valEj.exit10.thread

_ZNK2dd11pdd_manager6is_valEj.exit10:             ; preds = %44
  %47 = getelementptr inbounds nuw i8, ptr %40, i64 12
  %48 = load i32, ptr %47, align 4, !tbaa !98
  %49 = icmp eq i32 %48, 0
  br i1 %49, label %_ZNK2dd11pdd_manager6is_valEj.exit10.thread, label %_ZNK2dd11pdd_manager6is_valEj.exit12

_ZNK2dd11pdd_manager6is_valEj.exit10.thread:      ; preds = %44, %_ZNK2dd11pdd_manager6is_valEj.exit10
  %50 = getelementptr inbounds nuw %"struct.dd::pdd_manager::node", ptr %3, i64 %28, i32 1
  %51 = load i32, ptr %50, align 4, !tbaa !94
  %52 = zext i32 %51 to i64
  %53 = getelementptr inbounds nuw %"struct.dd::pdd_manager::node", ptr %3, i64 %52
  %54 = getelementptr inbounds nuw i8, ptr %53, i64 8
  %55 = load i32, ptr %54, align 4, !tbaa !92
  %56 = icmp eq i32 %55, 0
  br i1 %56, label %57, label %_ZNK2dd11pdd_manager6is_valEj.exit12

57:                                               ; preds = %_ZNK2dd11pdd_manager6is_valEj.exit10.thread
  %58 = getelementptr inbounds nuw i8, ptr %53, i64 4
  %59 = load i32, ptr %58, align 4, !tbaa !94
  %.not.i.i11 = icmp eq i32 %59, 0
  br i1 %.not.i.i11, label %60, label %_ZNK2dd11pdd_manager6is_valEj.exit12

60:                                               ; preds = %57
  %61 = getelementptr inbounds nuw i8, ptr %53, i64 12
  %62 = load i32, ptr %61, align 4, !tbaa !98
  %63 = icmp eq i32 %62, 0
  br label %_ZNK2dd11pdd_manager6is_valEj.exit12

_ZNK2dd11pdd_manager6is_valEj.exit12:             ; preds = %_ZNK2dd11pdd_manager6is_valEj.exit8.thread15, %33, %_ZNK2dd11pdd_manager6is_valEj.exit.thread13, %9, %60, %57, %_ZNK2dd11pdd_manager6is_valEj.exit10.thread, %_ZNK2dd11pdd_manager6is_valEj.exit6, %_ZNK2dd11pdd_manager6is_valEj.exit10, %_ZNK2dd11pdd_manager6is_valEj.exit8, %_ZNK2dd11pdd_manager6is_valEj.exit
  %64 = phi i1 [ true, %_ZNK2dd11pdd_manager6is_valEj.exit ], [ false, %_ZNK2dd11pdd_manager6is_valEj.exit6 ], [ true, %_ZNK2dd11pdd_manager6is_valEj.exit8 ], [ false, %_ZNK2dd11pdd_manager6is_valEj.exit10 ], [ false, %_ZNK2dd11pdd_manager6is_valEj.exit10.thread ], [ true, %57 ], [ %63, %60 ], [ true, %9 ], [ false, %_ZNK2dd11pdd_manager6is_valEj.exit.thread13 ], [ true, %33 ], [ false, %_ZNK2dd11pdd_manager6is_valEj.exit8.thread15 ]
  ret i1 %64
}